target datalayout = "e-m:e-p270:32:32-p271:32:32-p272:64:64-i64:64-i128:128-f80:128-n8:16:32:64-S128"
target triple = "x86_64-pc-linux-gnu"

%struct.prov_des_ctx_st = type { %struct.prov_cipher_ctx_st, %union.anon.0, %union.anon.2 }
%struct.prov_cipher_ctx_st = type { [16 x i8], [16 x i8], [16 x i8], ptr, %union.anon, i32, i64, i64, i64, i64, i32, i8, i32, ptr, i32, i64, i32, i64, i32, ptr, ptr, ptr }
%union.anon = type { ptr }
%union.anon.0 = type { double, [120 x i8] }
%union.anon.2 = type { ptr }

; Function Attrs: nounwind uwtable
define internal i32 @cipher_hw_des_cfb1_cipher(ptr noundef %0, ptr noundef %1, ptr noundef %2, i64 noundef %3) #0 {
  %5 = alloca ptr, align 8
  %6 = alloca ptr, align 8
  %7 = alloca ptr, align 8
  %8 = alloca i64, align 8
  %9 = alloca i64, align 8
  %10 = alloca i64, align 8
  %11 = alloca ptr, align 8
  %12 = alloca [1 x i8], align 1
  %13 = alloca [1 x i8], align 1
  store ptr %0, ptr %5, align 8, !tbaa !3
  store ptr %1, ptr %6, align 8, !tbaa !8
  store ptr %2, ptr %7, align 8, !tbaa !8
  store i64 %3, ptr %8, align 8, !tbaa !10
  call void @llvm.lifetime.start.p0(i64 8, ptr %9) #5
  call void @llvm.lifetime.start.p0(i64 8, ptr %10) #5
  store i64 134217728, ptr %10, align 8, !tbaa !10
  call void @llvm.lifetime.start.p0(i64 8, ptr %11) #5
  %14 = load ptr, ptr %5, align 8, !tbaa !3
  %15 = getelementptr inbounds nuw %struct.prov_des_ctx_st, ptr %14, i32 0, i32 1
  store ptr %15, ptr %11, align 8, !tbaa !14
  call void @llvm.lifetime.start.p0(i64 1, ptr %12) #5
  call void @llvm.lifetime.start.p0(i64 1, ptr %13) #5
  call void @llvm.memset.p0.i64(ptr align 1 %13, i8 0, i64 1, i1 false)
  %16 = load i64, ptr %8, align 8, !tbaa !10
  %17 = load i64, ptr %10, align 8, !tbaa !10
  %18 = icmp ult i64 %16, %17
  br i1 %18, label %19, label %21

19:                                               ; preds = %4
  %20 = load i64, ptr %8, align 8, !tbaa !10
  store i64 %20, ptr %10, align 8, !tbaa !10
  br label %21

21:                                               ; preds = %19, %4
  br label %22

22:                                               ; preds = %110, %21
  %23 = load i64, ptr %8, align 8, !tbaa !10
  %24 = icmp ne i64 %23, 0
  br i1 %24, label %25, label %29

25:                                               ; preds = %22
  %26 = load i64, ptr %8, align 8, !tbaa !10
  %27 = load i64, ptr %10, align 8, !tbaa !10
  %28 = icmp uge i64 %26, %27
  br label %29

29:                                               ; preds = %25, %22
  %30 = phi i1 [ false, %22 ], [ %28, %25 ]
  br i1 %30, label %31, label %111

31:                                               ; preds = %29
  store i64 0, ptr %9, align 8, !tbaa !10
  br label %32

32:                                               ; preds = %92, %31
  %33 = load i64, ptr %9, align 8, !tbaa !10
  %34 = load i64, ptr %10, align 8, !tbaa !10
  %35 = mul i64 %34, 8
  %36 = icmp ult i64 %33, %35
  br i1 %36, label %37, label %95

37:                                               ; preds = %32
  %38 = load ptr, ptr %7, align 8, !tbaa !8
  %39 = load i64, ptr %9, align 8, !tbaa !10
  %40 = udiv i64 %39, 8
  %41 = getelementptr inbounds nuw i8, ptr %38, i64 %40
  %42 = load i8, ptr %41, align 1, !tbaa !16
  %43 = zext i8 %42 to i32
  %44 = load i64, ptr %9, align 8, !tbaa !10
  %45 = urem i64 %44, 8
  %46 = sub i64 7, %45
  %47 = trunc i64 %46 to i32
  %48 = shl i32 1, %47
  %49 = and i32 %43, %48
  %50 = icmp ne i32 %49, 0
  %51 = select i1 %50, i32 128, i32 0
  %52 = trunc i32 %51 to i8
  %53 = getelementptr inbounds [1 x i8], ptr %12, i64 0, i64 0
  store i8 %52, ptr %53, align 1, !tbaa !16
  %54 = getelementptr inbounds [1 x i8], ptr %12, i64 0, i64 0
  %55 = getelementptr inbounds [1 x i8], ptr %13, i64 0, i64 0
  %56 = load ptr, ptr %11, align 8, !tbaa !14
  %57 = load ptr, ptr %5, align 8, !tbaa !3
  %58 = getelementptr inbounds nuw %struct.prov_cipher_ctx_st, ptr %57, i32 0, i32 2
  %59 = getelementptr inbounds [16 x i8], ptr %58, i64 0, i64 0
  %60 = load ptr, ptr %5, align 8, !tbaa !3
  %61 = getelementptr inbounds nuw %struct.prov_cipher_ctx_st, ptr %60, i32 0, i32 11
  %62 = load i8, ptr %61, align 4
  %63 = lshr i8 %62, 1
  %64 = and i8 %63, 1
  %65 = zext i8 %64 to i32
  call void @DES_cfb_encrypt(ptr noundef %54, ptr noundef %55, i32 noundef 1, i64 noundef 1, ptr noundef %56, ptr noundef %59, i32 noundef %65)
  %66 = load ptr, ptr %6, align 8, !tbaa !8
  %67 = load i64, ptr %9, align 8, !tbaa !10
  %68 = udiv i64 %67, 8
  %69 = getelementptr inbounds nuw i8, ptr %66, i64 %68
  %70 = load i8, ptr %69, align 1, !tbaa !16
  %71 = zext i8 %70 to i32
  %72 = load i64, ptr %9, align 8, !tbaa !10
  %73 = urem i64 %72, 8
  %74 = trunc i64 %73 to i32
  %75 = ashr i32 128, %74
  %76 = xor i32 %75, -1
  %77 = and i32 %71, %76
  %78 = getelementptr inbounds [1 x i8], ptr %13, i64 0, i64 0
  %79 = load i8, ptr %78, align 1, !tbaa !16
  %80 = zext i8 %79 to i32
  %81 = and i32 %80, 128
  %82 = load i64, ptr %9, align 8, !tbaa !10
  %83 = urem i64 %82, 8
  %84 = trunc i64 %83 to i32
  %85 = ashr i32 %81, %84
  %86 = or i32 %77, %85
  %87 = trunc i32 %86 to i8
  %88 = load ptr, ptr %6, align 8, !tbaa !8
  %89 = load i64, ptr %9, align 8, !tbaa !10
  %90 = udiv i64 %89, 8
  %91 = getelementptr inbounds nuw i8, ptr %88, i64 %90
  store i8 %87, ptr %91, align 1, !tbaa !16
  br label %92

92:                                               ; preds = %37
  %93 = load i64, ptr %9, align 8, !tbaa !10
  %94 = add i64 %93, 1
  store i64 %94, ptr %9, align 8, !tbaa !10
  br label %32, !llvm.loop !34

95:                                               ; preds = %32
  %96 = load i64, ptr %10, align 8, !tbaa !10
  %97 = load i64, ptr %8, align 8, !tbaa !10
  %98 = sub i64 %97, %96
  store i64 %98, ptr %8, align 8, !tbaa !10
  %99 = load i64, ptr %10, align 8, !tbaa !10
  %100 = load ptr, ptr %7, align 8, !tbaa !8
  %101 = getelementptr inbounds nuw i8, ptr %100, i64 %99
  store ptr %101, ptr %7, align 8, !tbaa !8
  %102 = load i64, ptr %10, align 8, !tbaa !10
  %103 = load ptr, ptr %6, align 8, !tbaa !8
  %104 = getelementptr inbounds nuw i8, ptr %103, i64 %102
  store ptr %104, ptr %6, align 8, !tbaa !8
  %105 = load i64, ptr %8, align 8, !tbaa !10
  %106 = load i64, ptr %10, align 8, !tbaa !10
  %107 = icmp ult i64 %105, %106
  br i1 %107, label %108, label %110

108:                                              ; preds = %95
  %109 = load i64, ptr %8, align 8, !tbaa !10
  store i64 %109, ptr %10, align 8, !tbaa !10
  br label %110

110:                                              ; preds = %108, %95
  br label %22, !llvm.loop !35

111:                                              ; preds = %29
  call void @llvm.lifetime.end.p0(i64 1, ptr %13) #5
  call void @llvm.lifetime.end.p0(i64 1, ptr %12) #5
  call void @llvm.lifetime.end.p0(i64 8, ptr %11) #5
  call void @llvm.lifetime.end.p0(i64 8, ptr %10) #5
  call void @llvm.lifetime.end.p0(i64 8, ptr %9) #5
  ret i32 1
}