; Function Attrs: nounwind uwtable
define internal noundef i32 @cipher_hw_des_cfb1_cipher(ptr noundef %0, ptr noundef captures(none) %1, ptr noundef readonly captures(none) %2, i64 noundef %3) #1 {
  %5 = alloca [1 x i8], align 1
  %6 = alloca [1 x i8], align 1
  %7 = getelementptr inbounds nuw i8, ptr %0, i64 192
  call void @llvm.lifetime.start.p0(i64 1, ptr nonnull %5) #7
  call void @llvm.lifetime.start.p0(i64 1, ptr nonnull %6) #7
  store i8 0, ptr %6, align 1
  %.not43 = icmp eq i64 %3, 0
  br i1 %.not43, label %._crit_edge42, label %.preheader.lr.ph

.preheader.lr.ph:                                 ; preds = %4
  %spec.select = tail call i64 @llvm.umin.i64(i64 %3, i64 134217728)
  %8 = getelementptr inbounds nuw i8, ptr %0, i64 32
  %9 = getelementptr inbounds nuw i8, ptr %0, i64 108
  br label %.preheader

.preheader:                                       ; preds = %.preheader.lr.ph, %._crit_edge
  %.041 = phi ptr [ %1, %.preheader.lr.ph ], [ %39, %._crit_edge ]
  %.140 = phi i64 [ %spec.select, %.preheader.lr.ph ], [ %spec.select36, %._crit_edge ]
  %.03239 = phi i64 [ %3, %.preheader.lr.ph ], [ %37, %._crit_edge ]
  %.03338 = phi ptr [ %2, %.preheader.lr.ph ], [ %38, %._crit_edge ]
  %.not44 = icmp eq i64 %.140, 0
  br i1 %.not44, label %._crit_edge, label %.lr.ph.preheader

.lr.ph.preheader:                                 ; preds = %.preheader
  %10 = shl nuw nsw i64 %.140, 3
  br label %.lr.ph

.lr.ph:                                           ; preds = %.lr.ph.preheader, %.lr.ph
  %.03137 = phi i64 [ %36, %.lr.ph ], [ 0, %.lr.ph.preheader ]
  %11 = lshr i64 %.03137, 3
  %12 = getelementptr inbounds nuw i8, ptr %.03338, i64 %11
  %13 = load i8, ptr %12, align 1, !tbaa !3
  %14 = zext i8 %13 to i32
  %15 = trunc i64 %.03137 to i32
  %16 = and i32 %15, 7
  %17 = xor i32 %16, 7
  %18 = shl nuw nsw i32 1, %17
  %19 = and i32 %18, %14
  %.not = icmp eq i32 %19, 0
  %20 = select i1 %.not, i8 0, i8 -128
  store i8 %20, ptr %5, align 1, !tbaa !3
  %21 = load i8, ptr %9, align 4
  %22 = lshr i8 %21, 1
  %23 = and i8 %22, 1
  %24 = zext nneg i8 %23 to i32
  call void @DES_cfb_encrypt(ptr noundef nonnull %5, ptr noundef nonnull %6, i32 noundef 1, i64 noundef 1, ptr noundef nonnull %7, ptr noundef nonnull %8, i32 noundef %24) #7
  %25 = getelementptr inbounds nuw i8, ptr %.041, i64 %11
  %26 = load i8, ptr %25, align 1, !tbaa !3
  %27 = zext i8 %26 to i32
  %28 = ashr i32 -129, %16
  %29 = and i32 %28, %27
  %30 = load i8, ptr %6, align 1, !tbaa !3
  %31 = and i8 %30, -128
  %32 = zext i8 %31 to i32
  %33 = lshr exact i32 %32, %16
  %34 = or i32 %33, %29
  %35 = trunc nuw i32 %34 to i8
  store i8 %35, ptr %25, align 1, !tbaa !3
  %36 = add nuw i64 %.03137, 1
  %exitcond.not = icmp eq i64 %36, %10
  br i1 %exitcond.not, label %._crit_edge, label %.lr.ph, !llvm.loop !28

._crit_edge:                                      ; preds = %.lr.ph, %.preheader
  %37 = sub i64 %.03239, %.140
  %38 = getelementptr inbounds nuw i8, ptr %.03338, i64 %.140
  %39 = getelementptr inbounds nuw i8, ptr %.041, i64 %.140
  %spec.select36 = call i64 @llvm.umin.i64(i64 %37, i64 %.140)
  %.not45 = icmp eq i64 %37, 0
  br i1 %.not45, label %._crit_edge42, label %.preheader, !llvm.loop !29

._crit_edge42:                                    ; preds = %._crit_edge, %4
  call void @llvm.lifetime.end.p0(i64 1, ptr nonnull %6) #7
  call void @llvm.lifetime.end.p0(i64 1, ptr nonnull %5) #7
  ret i32 1
}